target datalayout = "e-m:e-p270:32:32-p271:32:32-p272:64:64-i64:64-i128:128-f80:128-n8:16:32:64-S128"
target triple = "x86_64-pc-linux-gnu"

%struct.AVFilterContext = type { ptr, ptr, ptr, ptr, ptr, i32, ptr, ptr, i32, ptr, ptr, i32, i32, ptr, ptr, ptr, ptr, i32, ptr, i32, i32 }
%struct.AFreqShift = type { ptr, double, double, i32, i32, [32 x double], [32 x float], i64, ptr, ptr, ptr, ptr, ptr }
%struct.AVChannelLayout = type { i32, i32, %union.anon.1, ptr }
%union.anon.1 = type { i64 }
%struct.AVRational = type { i32, i32 }
%struct.AVFrame = type { [8 x ptr], [8 x i32], ptr, i32, i32, i32, i32, i32, %struct.AVRational, i64, i64, %struct.AVRational, i32, ptr, i32, i32, [8 x ptr], ptr, i32, ptr, i32, i32, i32, i32, i32, i32, i32, i64, ptr, i32, ptr, ptr, i64, i64, i64, i64, ptr, %struct.AVChannelLayout, i64 }

; Function Attrs: nounwind uwtable
define internal void @ffilter_channel_flt(ptr noundef %0, i32 noundef %1, ptr noundef %2, ptr noundef %3) #2 {
  %5 = alloca ptr, align 8
  %6 = alloca i32, align 4
  %7 = alloca ptr, align 8
  %8 = alloca ptr, align 8
  %9 = alloca ptr, align 8
  %10 = alloca i32, align 4
  %11 = alloca ptr, align 8
  %12 = alloca ptr, align 8
  %13 = alloca ptr, align 8
  %14 = alloca ptr, align 8
  %15 = alloca ptr, align 8
  %16 = alloca ptr, align 8
  %17 = alloca i32, align 4
  %18 = alloca ptr, align 8
  %19 = alloca float, align 4
  %20 = alloca float, align 4
  %21 = alloca float, align 4
  %22 = alloca i64, align 8
  %23 = alloca i32, align 4
  %24 = alloca i32, align 4
  %25 = alloca float, align 4
  %26 = alloca float, align 4
  %27 = alloca float, align 4
  %28 = alloca float, align 4
  %29 = alloca float, align 4
  %30 = alloca i32, align 4
  %31 = alloca i32, align 4
  store ptr %0, ptr %5, align 8, !tbaa !4
  store i32 %1, ptr %6, align 4, !tbaa !65
  store ptr %2, ptr %7, align 8, !tbaa !26
  store ptr %3, ptr %8, align 8, !tbaa !26
  call void @llvm.lifetime.start.p0(i64 8, ptr %9) #6
  %32 = load ptr, ptr %5, align 8, !tbaa !4
  %33 = getelementptr inbounds nuw %struct.AVFilterContext, ptr %32, i32 0, i32 9
  %34 = load ptr, ptr %33, align 8, !tbaa !9
  store ptr %34, ptr %9, align 8, !tbaa !22
  call void @llvm.lifetime.start.p0(i64 4, ptr %10) #6
  %35 = load ptr, ptr %7, align 8, !tbaa !26
  %36 = getelementptr inbounds nuw %struct.AVFrame, ptr %35, i32 0, i32 5
  %37 = load i32, ptr %36, align 8, !tbaa !43
  store i32 %37, ptr %10, align 4, !tbaa !65
  call void @llvm.lifetime.start.p0(i64 8, ptr %11) #6
  %38 = load ptr, ptr %7, align 8, !tbaa !26
  %39 = getelementptr inbounds nuw %struct.AVFrame, ptr %38, i32 0, i32 2
  %40 = load ptr, ptr %39, align 8, !tbaa !80
  %41 = load i32, ptr %6, align 4, !tbaa !65
  %42 = sext i32 %41 to i64
  %43 = getelementptr inbounds ptr, ptr %40, i64 %42
  %44 = load ptr, ptr %43, align 8, !tbaa !81
  store ptr %44, ptr %11, align 8, !tbaa !63
  call void @llvm.lifetime.start.p0(i64 8, ptr %12) #6
  %45 = load ptr, ptr %8, align 8, !tbaa !26
  %46 = getelementptr inbounds nuw %struct.AVFrame, ptr %45, i32 0, i32 2
  %47 = load ptr, ptr %46, align 8, !tbaa !80
  %48 = load i32, ptr %6, align 4, !tbaa !65
  %49 = sext i32 %48 to i64
  %50 = getelementptr inbounds ptr, ptr %47, i64 %49
  %51 = load ptr, ptr %50, align 8, !tbaa !81
  store ptr %51, ptr %12, align 8, !tbaa !63
  call void @llvm.lifetime.start.p0(i64 8, ptr %13) #6
  %52 = load ptr, ptr %9, align 8, !tbaa !22
  %53 = getelementptr inbounds nuw %struct.AFreqShift, ptr %52, i32 0, i32 8
  %54 = load ptr, ptr %53, align 8, !tbaa !53
  %55 = getelementptr inbounds nuw %struct.AVFrame, ptr %54, i32 0, i32 2
  %56 = load ptr, ptr %55, align 8, !tbaa !80
  %57 = load i32, ptr %6, align 4, !tbaa !65
  %58 = sext i32 %57 to i64
  %59 = getelementptr inbounds ptr, ptr %56, i64 %58
  %60 = load ptr, ptr %59, align 8, !tbaa !81
  store ptr %60, ptr %13, align 8, !tbaa !63
  call void @llvm.lifetime.start.p0(i64 8, ptr %14) #6
  %61 = load ptr, ptr %9, align 8, !tbaa !22
  %62 = getelementptr inbounds nuw %struct.AFreqShift, ptr %61, i32 0, i32 9
  %63 = load ptr, ptr %62, align 8, !tbaa !54
  %64 = getelementptr inbounds nuw %struct.AVFrame, ptr %63, i32 0, i32 2
  %65 = load ptr, ptr %64, align 8, !tbaa !80
  %66 = load i32, ptr %6, align 4, !tbaa !65
  %67 = sext i32 %66 to i64
  %68 = getelementptr inbounds ptr, ptr %65, i64 %67
  %69 = load ptr, ptr %68, align 8, !tbaa !81
  store ptr %69, ptr %14, align 8, !tbaa !63
  call void @llvm.lifetime.start.p0(i64 8, ptr %15) #6
  %70 = load ptr, ptr %9, align 8, !tbaa !22
  %71 = getelementptr inbounds nuw %struct.AFreqShift, ptr %70, i32 0, i32 10
  %72 = load ptr, ptr %71, align 8, !tbaa !55
  %73 = getelementptr inbounds nuw %struct.AVFrame, ptr %72, i32 0, i32 2
  %74 = load ptr, ptr %73, align 8, !tbaa !80
  %75 = load i32, ptr %6, align 4, !tbaa !65
  %76 = sext i32 %75 to i64
  %77 = getelementptr inbounds ptr, ptr %74, i64 %76
  %78 = load ptr, ptr %77, align 8, !tbaa !81
  store ptr %78, ptr %15, align 8, !tbaa !63
  call void @llvm.lifetime.start.p0(i64 8, ptr %16) #6
  %79 = load ptr, ptr %9, align 8, !tbaa !22
  %80 = getelementptr inbounds nuw %struct.AFreqShift, ptr %79, i32 0, i32 11
  %81 = load ptr, ptr %80, align 8, !tbaa !56
  %82 = getelementptr inbounds nuw %struct.AVFrame, ptr %81, i32 0, i32 2
  %83 = load ptr, ptr %82, align 8, !tbaa !80
  %84 = load i32, ptr %6, align 4, !tbaa !65
  %85 = sext i32 %84 to i64
  %86 = getelementptr inbounds ptr, ptr %83, i64 %85
  %87 = load ptr, ptr %86, align 8, !tbaa !81
  store ptr %87, ptr %16, align 8, !tbaa !63
  call void @llvm.lifetime.start.p0(i64 4, ptr %17) #6
  %88 = load ptr, ptr %9, align 8, !tbaa !22
  %89 = getelementptr inbounds nuw %struct.AFreqShift, ptr %88, i32 0, i32 3
  %90 = load i32, ptr %89, align 8, !tbaa !41
  store i32 %90, ptr %17, align 4, !tbaa !65
  call void @llvm.lifetime.start.p0(i64 8, ptr %18) #6
  %91 = load ptr, ptr %9, align 8, !tbaa !22
  %92 = getelementptr inbounds nuw %struct.AFreqShift, ptr %91, i32 0, i32 6
  %93 = getelementptr inbounds [32 x float], ptr %92, i64 0, i64 0
  store ptr %93, ptr %18, align 8, !tbaa !63
  call void @llvm.lifetime.start.p0(i64 4, ptr %19) #6
  %94 = load ptr, ptr %9, align 8, !tbaa !22
  %95 = getelementptr inbounds nuw %struct.AFreqShift, ptr %94, i32 0, i32 2
  %96 = load double, ptr %95, align 8, !tbaa !82
  %97 = fptrunc nsz double %96 to float
  store float %97, ptr %19, align 4, !tbaa !67
  call void @llvm.lifetime.start.p0(i64 4, ptr %20) #6
  %98 = load ptr, ptr %7, align 8, !tbaa !26
  %99 = getelementptr inbounds nuw %struct.AVFrame, ptr %98, i32 0, i32 15
  %100 = load i32, ptr %99, align 4, !tbaa !83
  %101 = sitofp i32 %100 to double
  %102 = fdiv nsz double 1.000000e+00, %101
  %103 = fptrunc nsz double %102 to float
  store float %103, ptr %20, align 4, !tbaa !67
  call void @llvm.lifetime.start.p0(i64 4, ptr %21) #6
  %104 = load ptr, ptr %9, align 8, !tbaa !22
  %105 = getelementptr inbounds nuw %struct.AFreqShift, ptr %104, i32 0, i32 1
  %106 = load double, ptr %105, align 8, !tbaa !84
  %107 = fptrunc nsz double %106 to float
  store float %107, ptr %21, align 4, !tbaa !67
  call void @llvm.lifetime.start.p0(i64 8, ptr %22) #6
  %108 = load ptr, ptr %9, align 8, !tbaa !22
  %109 = getelementptr inbounds nuw %struct.AFreqShift, ptr %108, i32 0, i32 7
  %110 = load i64, ptr %109, align 8, !tbaa !52
  store i64 %110, ptr %22, align 8, !tbaa !76
  call void @llvm.lifetime.start.p0(i64 4, ptr %23) #6
  store i32 0, ptr %23, align 4, !tbaa !65
  br label %111

111:                                              ; preds = %280, %4
  %112 = load i32, ptr %23, align 4, !tbaa !65
  %113 = load i32, ptr %10, align 4, !tbaa !65
  %114 = icmp slt i32 %112, %113
  br i1 %114, label %116, label %115

115:                                              ; preds = %111
  store i32 2, ptr %24, align 4
  call void @llvm.lifetime.end.p0(i64 4, ptr %23) #6
  br label %283

116:                                              ; preds = %111
  call void @llvm.lifetime.start.p0(i64 4, ptr %25) #6
  %117 = load ptr, ptr %11, align 8, !tbaa !63
  %118 = load i32, ptr %23, align 4, !tbaa !65
  %119 = sext i32 %118 to i64
  %120 = getelementptr inbounds float, ptr %117, i64 %119
  %121 = load float, ptr %120, align 4, !tbaa !67
  store float %121, ptr %25, align 4, !tbaa !67
  call void @llvm.lifetime.start.p0(i64 4, ptr %26) #6
  %122 = load ptr, ptr %11, align 8, !tbaa !63
  %123 = load i32, ptr %23, align 4, !tbaa !65
  %124 = sext i32 %123 to i64
  %125 = getelementptr inbounds float, ptr %122, i64 %124
  %126 = load float, ptr %125, align 4, !tbaa !67
  store float %126, ptr %26, align 4, !tbaa !67
  call void @llvm.lifetime.start.p0(i64 4, ptr %27) #6
  call void @llvm.lifetime.start.p0(i64 4, ptr %28) #6
  call void @llvm.lifetime.start.p0(i64 4, ptr %29) #6
  call void @llvm.lifetime.start.p0(i64 4, ptr %30) #6
  store i32 0, ptr %30, align 4, !tbaa !65
  br label %127

127:                                              ; preds = %181, %116
  %128 = load i32, ptr %30, align 4, !tbaa !65
  %129 = load i32, ptr %17, align 4, !tbaa !65
  %130 = icmp slt i32 %128, %129
  br i1 %130, label %132, label %131

131:                                              ; preds = %127
  store i32 5, ptr %24, align 4
  call void @llvm.lifetime.end.p0(i64 4, ptr %30) #6
  br label %184

132:                                              ; preds = %127
  %133 = load ptr, ptr %18, align 8, !tbaa !63
  %134 = load i32, ptr %30, align 4, !tbaa !65
  %135 = sext i32 %134 to i64
  %136 = getelementptr inbounds float, ptr %133, i64 %135
  %137 = load float, ptr %136, align 4, !tbaa !67
  %138 = load float, ptr %25, align 4, !tbaa !67
  %139 = load ptr, ptr %16, align 8, !tbaa !63
  %140 = load i32, ptr %30, align 4, !tbaa !65
  %141 = sext i32 %140 to i64
  %142 = getelementptr inbounds float, ptr %139, i64 %141
  %143 = load float, ptr %142, align 4, !tbaa !67
  %144 = fadd nsz float %138, %143
  %145 = load ptr, ptr %15, align 8, !tbaa !63
  %146 = load i32, ptr %30, align 4, !tbaa !65
  %147 = sext i32 %146 to i64
  %148 = getelementptr inbounds float, ptr %145, i64 %147
  %149 = load float, ptr %148, align 4, !tbaa !67
  %150 = fneg nsz float %149
  %151 = call nsz float @llvm.fmuladd.f32(float %137, float %144, float %150)
  store float %151, ptr %27, align 4, !tbaa !67
  %152 = load ptr, ptr %13, align 8, !tbaa !63
  %153 = load i32, ptr %30, align 4, !tbaa !65
  %154 = sext i32 %153 to i64
  %155 = getelementptr inbounds float, ptr %152, i64 %154
  %156 = load float, ptr %155, align 4, !tbaa !67
  %157 = load ptr, ptr %15, align 8, !tbaa !63
  %158 = load i32, ptr %30, align 4, !tbaa !65
  %159 = sext i32 %158 to i64
  %160 = getelementptr inbounds float, ptr %157, i64 %159
  store float %156, ptr %160, align 4, !tbaa !67
  %161 = load float, ptr %25, align 4, !tbaa !67
  %162 = load ptr, ptr %13, align 8, !tbaa !63
  %163 = load i32, ptr %30, align 4, !tbaa !65
  %164 = sext i32 %163 to i64
  %165 = getelementptr inbounds float, ptr %162, i64 %164
  store float %161, ptr %165, align 4, !tbaa !67
  %166 = load ptr, ptr %14, align 8, !tbaa !63
  %167 = load i32, ptr %30, align 4, !tbaa !65
  %168 = sext i32 %167 to i64
  %169 = getelementptr inbounds float, ptr %166, i64 %168
  %170 = load float, ptr %169, align 4, !tbaa !67
  %171 = load ptr, ptr %16, align 8, !tbaa !63
  %172 = load i32, ptr %30, align 4, !tbaa !65
  %173 = sext i32 %172 to i64
  %174 = getelementptr inbounds float, ptr %171, i64 %173
  store float %170, ptr %174, align 4, !tbaa !67
  %175 = load float, ptr %27, align 4, !tbaa !67
  %176 = load ptr, ptr %14, align 8, !tbaa !63
  %177 = load i32, ptr %30, align 4, !tbaa !65
  %178 = sext i32 %177 to i64
  %179 = getelementptr inbounds float, ptr %176, i64 %178
  store float %175, ptr %179, align 4, !tbaa !67
  %180 = load float, ptr %27, align 4, !tbaa !67
  store float %180, ptr %25, align 4, !tbaa !67
  br label %181

181:                                              ; preds = %132
  %182 = load i32, ptr %30, align 4, !tbaa !65
  %183 = add nsw i32 %182, 1
  store i32 %183, ptr %30, align 4, !tbaa !65
  br label %127, !llvm.loop !91

184:                                              ; preds = %131
  call void @llvm.lifetime.start.p0(i64 4, ptr %31) #6
  %185 = load i32, ptr %17, align 4, !tbaa !65
  store i32 %185, ptr %31, align 4, !tbaa !65
  br label %186

186:                                              ; preds = %241, %184
  %187 = load i32, ptr %31, align 4, !tbaa !65
  %188 = load i32, ptr %17, align 4, !tbaa !65
  %189 = mul nsw i32 %188, 2
  %190 = icmp slt i32 %187, %189
  br i1 %190, label %192, label %191

191:                                              ; preds = %186
  store i32 8, ptr %24, align 4
  call void @llvm.lifetime.end.p0(i64 4, ptr %31) #6
  br label %244

192:                                              ; preds = %186
  %193 = load ptr, ptr %18, align 8, !tbaa !63
  %194 = load i32, ptr %31, align 4, !tbaa !65
  %195 = sext i32 %194 to i64
  %196 = getelementptr inbounds float, ptr %193, i64 %195
  %197 = load float, ptr %196, align 4, !tbaa !67
  %198 = load float, ptr %26, align 4, !tbaa !67
  %199 = load ptr, ptr %16, align 8, !tbaa !63
  %200 = load i32, ptr %31, align 4, !tbaa !65
  %201 = sext i32 %200 to i64
  %202 = getelementptr inbounds float, ptr %199, i64 %201
  %203 = load float, ptr %202, align 4, !tbaa !67
  %204 = fadd nsz float %198, %203
  %205 = load ptr, ptr %15, align 8, !tbaa !63
  %206 = load i32, ptr %31, align 4, !tbaa !65
  %207 = sext i32 %206 to i64
  %208 = getelementptr inbounds float, ptr %205, i64 %207
  %209 = load float, ptr %208, align 4, !tbaa !67
  %210 = fneg nsz float %209
  %211 = call nsz float @llvm.fmuladd.f32(float %197, float %204, float %210)
  store float %211, ptr %28, align 4, !tbaa !67
  %212 = load ptr, ptr %13, align 8, !tbaa !63
  %213 = load i32, ptr %31, align 4, !tbaa !65
  %214 = sext i32 %213 to i64
  %215 = getelementptr inbounds float, ptr %212, i64 %214
  %216 = load float, ptr %215, align 4, !tbaa !67
  %217 = load ptr, ptr %15, align 8, !tbaa !63
  %218 = load i32, ptr %31, align 4, !tbaa !65
  %219 = sext i32 %218 to i64
  %220 = getelementptr inbounds float, ptr %217, i64 %219
  store float %216, ptr %220, align 4, !tbaa !67
  %221 = load float, ptr %26, align 4, !tbaa !67
  %222 = load ptr, ptr %13, align 8, !tbaa !63
  %223 = load i32, ptr %31, align 4, !tbaa !65
  %224 = sext i32 %223 to i64
  %225 = getelementptr inbounds float, ptr %222, i64 %224
  store float %221, ptr %225, align 4, !tbaa !67
  %226 = load ptr, ptr %14, align 8, !tbaa !63
  %227 = load i32, ptr %31, align 4, !tbaa !65
  %228 = sext i32 %227 to i64
  %229 = getelementptr inbounds float, ptr %226, i64 %228
  %230 = load float, ptr %229, align 4, !tbaa !67
  %231 = load ptr, ptr %16, align 8, !tbaa !63
  %232 = load i32, ptr %31, align 4, !tbaa !65
  %233 = sext i32 %232 to i64
  %234 = getelementptr inbounds float, ptr %231, i64 %233
  store float %230, ptr %234, align 4, !tbaa !67
  %235 = load float, ptr %28, align 4, !tbaa !67
  %236 = load ptr, ptr %14, align 8, !tbaa !63
  %237 = load i32, ptr %31, align 4, !tbaa !65
  %238 = sext i32 %237 to i64
  %239 = getelementptr inbounds float, ptr %236, i64 %238
  store float %235, ptr %239, align 4, !tbaa !67
  %240 = load float, ptr %28, align 4, !tbaa !67
  store float %240, ptr %26, align 4, !tbaa !67
  br label %241

241:                                              ; preds = %192
  %242 = load i32, ptr %31, align 4, !tbaa !65
  %243 = add nsw i32 %242, 1
  store i32 %243, ptr %31, align 4, !tbaa !65
  br label %186, !llvm.loop !92

244:                                              ; preds = %191
  %245 = load ptr, ptr %16, align 8, !tbaa !63
  %246 = load i32, ptr %17, align 4, !tbaa !65
  %247 = mul nsw i32 %246, 2
  %248 = sub nsw i32 %247, 1
  %249 = sext i32 %248 to i64
  %250 = getelementptr inbounds float, ptr %245, i64 %249
  %251 = load float, ptr %250, align 4, !tbaa !67
  store float %251, ptr %28, align 4, !tbaa !67
  %252 = load float, ptr %21, align 4, !tbaa !67
  %253 = load i64, ptr %22, align 8, !tbaa !76
  %254 = load i32, ptr %23, align 4, !tbaa !65
  %255 = sext i32 %254 to i64
  %256 = add nsw i64 %253, %255
  %257 = sitofp i64 %256 to float
  %258 = fmul nsz float %252, %257
  %259 = load float, ptr %20, align 4, !tbaa !67
  %260 = fmul nsz float %258, %259
  %261 = frem nsz float %260, 1.000000e+00
  %262 = fpext nsz float %261 to double
  %263 = fmul nsz double 0x401921FB54442D18, %262
  %264 = fptrunc nsz double %263 to float
  store float %264, ptr %29, align 4, !tbaa !67
  %265 = load float, ptr %27, align 4, !tbaa !67
  %266 = load float, ptr %29, align 4, !tbaa !67
  %267 = call nsz float @llvm.cos.f32(float %266)
  %268 = load float, ptr %28, align 4, !tbaa !67
  %269 = load float, ptr %29, align 4, !tbaa !67
  %270 = call nsz float @llvm.sin.f32(float %269)
  %271 = fmul nsz float %268, %270
  %272 = fneg nsz float %271
  %273 = call nsz float @llvm.fmuladd.f32(float %265, float %267, float %272)
  %274 = load float, ptr %19, align 4, !tbaa !67
  %275 = fmul nsz float %273, %274
  %276 = load ptr, ptr %12, align 8, !tbaa !63
  %277 = load i32, ptr %23, align 4, !tbaa !65
  %278 = sext i32 %277 to i64
  %279 = getelementptr inbounds float, ptr %276, i64 %278
  store float %275, ptr %279, align 4, !tbaa !67
  call void @llvm.lifetime.end.p0(i64 4, ptr %29) #6
  call void @llvm.lifetime.end.p0(i64 4, ptr %28) #6
  call void @llvm.lifetime.end.p0(i64 4, ptr %27) #6
  call void @llvm.lifetime.end.p0(i64 4, ptr %26) #6
  call void @llvm.lifetime.end.p0(i64 4, ptr %25) #6
  br label %280

280:                                              ; preds = %244
  %281 = load i32, ptr %23, align 4, !tbaa !65
  %282 = add nsw i32 %281, 1
  store i32 %282, ptr %23, align 4, !tbaa !65
  br label %111, !llvm.loop !93

283:                                              ; preds = %115
  call void @llvm.lifetime.end.p0(i64 8, ptr %22) #6
  call void @llvm.lifetime.end.p0(i64 4, ptr %21) #6
  call void @llvm.lifetime.end.p0(i64 4, ptr %20) #6
  call void @llvm.lifetime.end.p0(i64 4, ptr %19) #6
  call void @llvm.lifetime.end.p0(i64 8, ptr %18) #6
  call void @llvm.lifetime.end.p0(i64 4, ptr %17) #6
  call void @llvm.lifetime.end.p0(i64 8, ptr %16) #6
  call void @llvm.lifetime.end.p0(i64 8, ptr %15) #6
  call void @llvm.lifetime.end.p0(i64 8, ptr %14) #6
  call void @llvm.lifetime.end.p0(i64 8, ptr %13) #6
  call void @llvm.lifetime.end.p0(i64 8, ptr %12) #6
  call void @llvm.lifetime.end.p0(i64 8, ptr %11) #6
  call void @llvm.lifetime.end.p0(i64 4, ptr %10) #6
  call void @llvm.lifetime.end.p0(i64 8, ptr %9) #6
  ret void
}