; Function Attrs: nofree norecurse nosync nounwind memory(readwrite, inaccessiblemem: none) uwtable
define internal void @ffilter_channel_flt(ptr noundef readonly captures(none) %0, i32 noundef %1, ptr noundef readonly captures(none) %2, ptr noundef readonly captures(none) %3) #8 {
  %5 = getelementptr inbounds nuw i8, ptr %0, i64 72
  %6 = load ptr, ptr %5, align 8, !tbaa !4
  %7 = getelementptr inbounds nuw i8, ptr %2, i64 112
  %8 = load i32, ptr %7, align 8, !tbaa !40
  %9 = getelementptr inbounds nuw i8, ptr %2, i64 96
  %10 = load ptr, ptr %9, align 8, !tbaa !69
  %11 = sext i32 %1 to i64
  %12 = getelementptr inbounds ptr, ptr %10, i64 %11
  %13 = load ptr, ptr %12, align 8, !tbaa !70
  %14 = getelementptr inbounds nuw i8, ptr %3, i64 96
  %15 = load ptr, ptr %14, align 8, !tbaa !69
  %16 = getelementptr inbounds ptr, ptr %15, i64 %11
  %17 = load ptr, ptr %16, align 8, !tbaa !70
  %18 = getelementptr inbounds nuw i8, ptr %6, i64 424
  %19 = load ptr, ptr %18, align 8, !tbaa !50
  %20 = getelementptr inbounds nuw i8, ptr %19, i64 96
  %21 = load ptr, ptr %20, align 8, !tbaa !69
  %22 = getelementptr inbounds ptr, ptr %21, i64 %11
  %23 = load ptr, ptr %22, align 8, !tbaa !70
  %24 = getelementptr inbounds nuw i8, ptr %6, i64 432
  %25 = load ptr, ptr %24, align 8, !tbaa !51
  %26 = getelementptr inbounds nuw i8, ptr %25, i64 96
  %27 = load ptr, ptr %26, align 8, !tbaa !69
  %28 = getelementptr inbounds ptr, ptr %27, i64 %11
  %29 = load ptr, ptr %28, align 8, !tbaa !70
  %30 = getelementptr inbounds nuw i8, ptr %6, i64 440
  %31 = load ptr, ptr %30, align 8, !tbaa !52
  %32 = getelementptr inbounds nuw i8, ptr %31, i64 96
  %33 = load ptr, ptr %32, align 8, !tbaa !69
  %34 = getelementptr inbounds ptr, ptr %33, i64 %11
  %35 = load ptr, ptr %34, align 8, !tbaa !70
  %36 = getelementptr inbounds nuw i8, ptr %6, i64 448
  %37 = load ptr, ptr %36, align 8, !tbaa !53
  %38 = getelementptr inbounds nuw i8, ptr %37, i64 96
  %39 = load ptr, ptr %38, align 8, !tbaa !69
  %40 = getelementptr inbounds ptr, ptr %39, i64 %11
  %41 = load ptr, ptr %40, align 8, !tbaa !70
  %42 = getelementptr inbounds nuw i8, ptr %6, i64 288
  %43 = getelementptr inbounds nuw i8, ptr %6, i64 16
  %44 = load double, ptr %43, align 8, !tbaa !71
  %45 = fptrunc nsz double %44 to float
  %46 = getelementptr inbounds nuw i8, ptr %2, i64 180
  %47 = load i32, ptr %46, align 4, !tbaa !72
  %48 = sitofp i32 %47 to double
  %49 = fdiv nsz double 1.000000e+00, %48
  %50 = fptrunc nsz double %49 to float
  %51 = getelementptr inbounds nuw i8, ptr %6, i64 8
  %52 = load double, ptr %51, align 8, !tbaa !73
  %53 = fptrunc nsz double %52 to float
  %54 = getelementptr inbounds nuw i8, ptr %6, i64 416
  %55 = load i64, ptr %54, align 8, !tbaa !49
  %56 = icmp sgt i32 %8, 0
  br i1 %56, label %.lr.ph106, label %._crit_edge107

.lr.ph106:                                        ; preds = %4
  %57 = getelementptr inbounds nuw i8, ptr %6, i64 24
  %58 = load i32, ptr %57, align 8, !tbaa !38
  %invariant.gep = getelementptr i8, ptr %41, i64 -4
  %59 = icmp sgt i32 %58, 0
  %60 = shl i32 %58, 1
  %61 = icmp slt i32 %58, %60
  %62 = sext i32 %60 to i64
  %gep = getelementptr float, ptr %invariant.gep, i64 %62
  %63 = sext i32 %58 to i64
  %wide.trip.count117 = zext nneg i32 %8 to i64
  %wide.trip.count = zext nneg i32 %58 to i64
  br label %64

._crit_edge107:                                   ; preds = %._crit_edge, %4
  ret void

64:                                               ; preds = %.lr.ph106, %._crit_edge
  %indvars.iv114 = phi i64 [ 0, %.lr.ph106 ], [ %indvars.iv.next115, %._crit_edge ]
  %.092103 = phi float [ undef, %.lr.ph106 ], [ %.1.lcssa, %._crit_edge ]
  %65 = getelementptr inbounds nuw float, ptr %13, i64 %indvars.iv114
  %66 = load float, ptr %65, align 4, !tbaa !64
  br i1 %59, label %.lr.ph, label %.preheader

.preheader:                                       ; preds = %.lr.ph, %64
  %.1.lcssa = phi float [ %.092103, %64 ], [ %75, %.lr.ph ]
  br i1 %61, label %.lr.ph101, label %._crit_edge

.lr.ph:                                           ; preds = %64, %.lr.ph
  %indvars.iv = phi i64 [ %indvars.iv.next, %.lr.ph ], [ 0, %64 ]
  %.09497 = phi float [ %75, %.lr.ph ], [ %66, %64 ]
  %67 = getelementptr inbounds nuw float, ptr %42, i64 %indvars.iv
  %68 = load float, ptr %67, align 4, !tbaa !64
  %69 = getelementptr inbounds nuw float, ptr %41, i64 %indvars.iv
  %70 = load float, ptr %69, align 4, !tbaa !64
  %71 = fadd nsz float %.09497, %70
  %72 = getelementptr inbounds nuw float, ptr %35, i64 %indvars.iv
  %73 = load float, ptr %72, align 4, !tbaa !64
  %74 = fneg nsz float %73
  %75 = tail call nsz float @llvm.fmuladd.f32(float %68, float %71, float %74)
  %76 = getelementptr inbounds nuw float, ptr %23, i64 %indvars.iv
  %77 = load float, ptr %76, align 4, !tbaa !64
  store float %77, ptr %72, align 4, !tbaa !64
  store float %.09497, ptr %76, align 4, !tbaa !64
  %78 = getelementptr inbounds nuw float, ptr %29, i64 %indvars.iv
  %79 = load float, ptr %78, align 4, !tbaa !64
  store float %79, ptr %69, align 4, !tbaa !64
  store float %75, ptr %78, align 4, !tbaa !64
  %indvars.iv.next = add nuw nsw i64 %indvars.iv, 1
  %exitcond.not = icmp eq i64 %indvars.iv.next, %wide.trip.count
  br i1 %exitcond.not, label %.preheader, label %.lr.ph, !llvm.loop !80

._crit_edge:                                      ; preds = %.lr.ph101, %.preheader
  %80 = load float, ptr %gep, align 4, !tbaa !64
  %81 = add nsw i64 %55, %indvars.iv114
  %82 = sitofp i64 %81 to float
  %83 = fmul nsz float %53, %82
  %84 = fmul nsz float %83, %50
  %85 = frem nsz float %84, 1.000000e+00
  %86 = fpext nsz float %85 to double
  %87 = fmul nsz double %86, 0x401921FB54442D18
  %88 = fptrunc nsz double %87 to float
  %89 = tail call nsz float @llvm.cos.f32(float %88)
  %90 = tail call nsz float @llvm.sin.f32(float %88)
  %91 = fneg nsz float %90
  %92 = fmul nsz float %80, %91
  %93 = tail call nsz float @llvm.fmuladd.f32(float %.1.lcssa, float %89, float %92)
  %94 = fmul nsz float %93, %45
  %95 = getelementptr inbounds nuw float, ptr %17, i64 %indvars.iv114
  store float %94, ptr %95, align 4, !tbaa !64
  %indvars.iv.next115 = add nuw nsw i64 %indvars.iv114, 1
  %exitcond118.not = icmp eq i64 %indvars.iv.next115, %wide.trip.count117
  br i1 %exitcond118.not, label %._crit_edge107, label %64, !llvm.loop !81

.lr.ph101:                                        ; preds = %.preheader, %.lr.ph101
  %indvars.iv109 = phi i64 [ %indvars.iv.next110, %.lr.ph101 ], [ %63, %.preheader ]
  %.09399 = phi float [ %104, %.lr.ph101 ], [ %66, %.preheader ]
  %96 = getelementptr inbounds float, ptr %42, i64 %indvars.iv109
  %97 = load float, ptr %96, align 4, !tbaa !64
  %98 = getelementptr inbounds float, ptr %41, i64 %indvars.iv109
  %99 = load float, ptr %98, align 4, !tbaa !64
  %100 = fadd nsz float %.09399, %99
  %101 = getelementptr inbounds float, ptr %35, i64 %indvars.iv109
  %102 = load float, ptr %101, align 4, !tbaa !64
  %103 = fneg nsz float %102
  %104 = tail call nsz float @llvm.fmuladd.f32(float %97, float %100, float %103)
  %105 = getelementptr inbounds float, ptr %23, i64 %indvars.iv109
  %106 = load float, ptr %105, align 4, !tbaa !64
  store float %106, ptr %101, align 4, !tbaa !64
  store float %.09399, ptr %105, align 4, !tbaa !64
  %107 = getelementptr inbounds float, ptr %29, i64 %indvars.iv109
  %108 = load float, ptr %107, align 4, !tbaa !64
  store float %108, ptr %98, align 4, !tbaa !64
  store float %104, ptr %107, align 4, !tbaa !64
  %indvars.iv.next110 = add nsw i64 %indvars.iv109, 1
  %exitcond113.not = icmp eq i64 %indvars.iv.next110, %62
  br i1 %exitcond113.not, label %._crit_edge, label %.lr.ph101, !llvm.loop !82
}